target datalayout = "e-m:e-p270:32:32-p271:32:32-p272:64:64-i64:64-i128:128-f80:128-n8:16:32:64-S128"
target triple = "x86_64-unknown-linux-gnu"

%"class.sat::scc" = type { ptr, i8, i8, i32, i32, %"class.sat::big" }
%"class.sat::big" = type { ptr, i32, %class.vector, %class.svector, %class.svector.1, %class.svector.1, %class.svector.3, %class.svector.3, i8, i8, %class.vector }
%class.svector = type { %class.vector.0 }
%class.vector.0 = type { ptr }
%class.svector.1 = type { %class.vector.2 }
%class.vector.2 = type { ptr }
%class.svector.3 = type { %class.vector.4 }
%class.vector.4 = type { ptr }
%class.vector = type { ptr }

; Function Attrs: mustprogress uwtable
define linkonce_odr hidden void @_ZN3sat3scc8init_bigEb(ptr noundef nonnull align 8 dereferenceable(104) %this, i1 noundef zeroext %learned) #5 comdat align 2 {
entry:
  %this.addr = alloca ptr, align 8
  %learned.addr = alloca i8, align 1
  store ptr %this, ptr %this.addr, align 8
  %frombool = zext i1 %learned to i8
  store i8 %frombool, ptr %learned.addr, align 1
  %this1 = load ptr, ptr %this.addr, align 8
  %m_big = getelementptr inbounds %"class.sat::scc", ptr %this1, i32 0, i32 5
  %m_solver = getelementptr inbounds %"class.sat::scc", ptr %this1, i32 0, i32 0
  %0 = load ptr, ptr %m_solver, align 8
  %1 = load i8, ptr %learned.addr, align 1
  %tobool = trunc i8 %1 to i1
  call void @_ZN3sat3big4initERNS_6solverEb(ptr noundef nonnull align 8 dereferenceable(80) %m_big, ptr noundef nonnull align 8 dereferenceable(4408) %0, i1 noundef zeroext %tobool)
  ret void
}

; Function Attrs: mustprogress nounwind uwtable
define linkonce_odr noundef nonnull align 4 dereferenceable(4) ptr @_ZSt3maxIjERKT_S2_S2_(ptr noundef nonnull align 4 dereferenceable(4) %__a, ptr noundef nonnull align 4 dereferenceable(4) %__b) #4 comdat {
entry:
  %retval = alloca ptr, align 8
  %__a.addr = alloca ptr, align 8
  %__b.addr = alloca ptr, align 8
  store ptr %__a, ptr %__a.addr, align 8
  store ptr %__b, ptr %__b.addr, align 8
  %0 = load ptr, ptr %__a.addr, align 8
  %1 = load i32, ptr %0, align 4
  %2 = load ptr, ptr %__b.addr, align 8
  %3 = load i32, ptr %2, align 4
  %cmp = icmp ult i32 %1, %3
  br i1 %cmp, label %if.then, label %if.end

if.then:                                          ; preds = %entry
  %4 = load ptr, ptr %__b.addr, align 8
  store ptr %4, ptr %retval, align 8
  br label %return

if.end:                                           ; preds = %entry
  %5 = load ptr, ptr %__a.addr, align 8
  store ptr %5, ptr %retval, align 8
  br label %return

return:                                           ; preds = %if.end, %if.then
  %6 = load ptr, ptr %retval, align 8
  ret ptr %6
}

; Function Attrs: mustprogress uwtable
define hidden noundef i32 @_ZN3sat3scc9reduce_trEb(ptr noundef nonnull align 8 dereferenceable(104) %this, i1 noundef zeroext %learned) #5 align 2 {
entry:
  %this.addr = alloca ptr, align 8
  %learned.addr = alloca i8, align 1
  %num_elim = alloca i32, align 4
  store ptr %this, ptr %this.addr, align 8
  %frombool = zext i1 %learned to i8
  store i8 %frombool, ptr %learned.addr, align 1
  %this1 = load ptr, ptr %this.addr, align 8
  %0 = load i8, ptr %learned.addr, align 1
  %tobool = trunc i8 %0 to i1
  call void @_ZN3sat3scc8init_bigEb(ptr noundef nonnull align 8 dereferenceable(104) %this1, i1 noundef zeroext %tobool)
  %m_big = getelementptr inbounds %"class.sat::scc", ptr %this1, i32 0, i32 5
  %m_solver = getelementptr inbounds %"class.sat::scc", ptr %this1, i32 0, i32 0
  %1 = load ptr, ptr %m_solver, align 8
  %call = call noundef i32 @_ZN3sat3big9reduce_trERNS_6solverE(ptr noundef nonnull align 8 dereferenceable(80) %m_big, ptr noundef nonnull align 8 dereferenceable(4408) %1)
  store i32 %call, ptr %num_elim, align 4
  %2 = load i32, ptr %num_elim, align 4
  %m_num_elim_bin = getelementptr inbounds %"class.sat::scc", ptr %this1, i32 0, i32 4
  %3 = load i32, ptr %m_num_elim_bin, align 8
  %add = add i32 %3, %2
  store i32 %add, ptr %m_num_elim_bin, align 8
  %4 = load i32, ptr %num_elim, align 4
  ret i32 %4
}

; Function Attrs: mustprogress uwtable
define hidden void @_ZN3sat3scc9reduce_trEv(ptr noundef nonnull align 8 dereferenceable(104) %this) #5 align 2 {
entry:
  %this.addr = alloca ptr, align 8
  %quota = alloca i32, align 4
  %num_reduced = alloca i32, align 4
  %count = alloca i32, align 4
  %ref.tmp = alloca i32, align 4
  %ref.tmp3 = alloca i32, align 4
  %ref.tmp13 = alloca i32, align 4
  %ref.tmp14 = alloca i32, align 4
  store ptr %this, ptr %this.addr, align 8
  %this1 = load ptr, ptr %this.addr, align 8
  store i32 0, ptr %quota, align 4
  store i32 0, ptr %num_reduced, align 4
  store i32 0, ptr %count, align 4
  br label %while.cond

while.cond:                                       ; preds = %while.body, %entry
  %call = call noundef i32 @_ZN3sat3scc9reduce_trEb(ptr noundef nonnull align 8 dereferenceable(104) %this1, i1 noundef zeroext false)
  store i32 %call, ptr %num_reduced, align 4
  %0 = load i32, ptr %quota, align 4
  %cmp = icmp ugt i32 %call, %0
  br i1 %cmp, label %land.rhs, label %land.end

land.rhs:                                         ; preds = %while.cond
  %1 = load i32, ptr %count, align 4
  %inc = add i32 %1, 1
  store i32 %inc, ptr %count, align 4
  %cmp2 = icmp ult i32 %1, 10
  br label %land.end

land.end:                                         ; preds = %land.rhs, %while.cond
  %2 = phi i1 [ false, %while.cond ], [ %cmp2, %land.rhs ]
  br i1 %2, label %while.body, label %while.end

while.body:                                       ; preds = %land.end
  store i32 100, ptr %ref.tmp, align 4
  %3 = load i32, ptr %num_reduced, align 4
  %div = udiv i32 %3, 2
  store i32 %div, ptr %ref.tmp3, align 4
  %call4 = call noundef nonnull align 4 dereferenceable(4) ptr @_ZSt3maxIjERKT_S2_S2_(ptr noundef nonnull align 4 dereferenceable(4) %ref.tmp, ptr noundef nonnull align 4 dereferenceable(4) %ref.tmp3)
  %4 = load i32, ptr %call4, align 4
  store i32 %4, ptr %quota, align 4
  br label %while.cond, !llvm.loop !18

while.end:                                        ; preds = %land.end
  store i32 0, ptr %quota, align 4
  store i32 0, ptr %count, align 4
  br label %while.cond5

while.cond5:                                      ; preds = %while.body12, %while.end
  %call6 = call noundef i32 @_ZN3sat3scc9reduce_trEb(ptr noundef nonnull align 8 dereferenceable(104) %this1, i1 noundef zeroext true)
  store i32 %call6, ptr %num_reduced, align 4
  %5 = load i32, ptr %quota, align 4
  %cmp7 = icmp ugt i32 %call6, %5
  br i1 %cmp7, label %land.rhs8, label %land.end11

land.rhs8:                                        ; preds = %while.cond5
  %6 = load i32, ptr %count, align 4
  %inc9 = add i32 %6, 1
  store i32 %inc9, ptr %count, align 4
  %cmp10 = icmp ult i32 %6, 10
  br label %land.end11

land.end11:                                       ; preds = %land.rhs8, %while.cond5
  %7 = phi i1 [ false, %while.cond5 ], [ %cmp10, %land.rhs8 ]
  br i1 %7, label %while.body12, label %while.end17

while.body12:                                     ; preds = %land.end11
  store i32 100, ptr %ref.tmp13, align 4
  %8 = load i32, ptr %num_reduced, align 4
  %div15 = udiv i32 %8, 2
  store i32 %div15, ptr %ref.tmp14, align 4
  %call16 = call noundef nonnull align 4 dereferenceable(4) ptr @_ZSt3maxIjERKT_S2_S2_(ptr noundef nonnull align 4 dereferenceable(4) %ref.tmp13, ptr noundef nonnull align 4 dereferenceable(4) %ref.tmp14)
  %9 = load i32, ptr %call16, align 4
  store i32 %9, ptr %quota, align 4
  br label %while.cond5, !llvm.loop !19

while.end17:                                      ; preds = %land.end11
  ret void
}