; Function Attrs: mustprogress uwtable
define hidden void @_ZN3sat3scc9reduce_trEv(ptr noundef nonnull align 8 dereferenceable(104) %this) local_unnamed_addr #3 align 2 {
entry:
  %m_big.i.i = getelementptr inbounds i8, ptr %this, i64 24
  %0 = load ptr, ptr %this, align 8
  tail call void @_ZN3sat3big4initERNS_6solverEb(ptr noundef nonnull align 8 dereferenceable(80) %m_big.i.i, ptr noundef nonnull align 8 dereferenceable(4408) %0, i1 noundef zeroext false)
  %1 = load ptr, ptr %this, align 8
  %call.i18 = tail call noundef i32 @_ZN3sat3big9reduce_trERNS_6solverE(ptr noundef nonnull align 8 dereferenceable(80) %m_big.i.i, ptr noundef nonnull align 8 dereferenceable(4408) %1)
  %m_num_elim_bin.i = getelementptr inbounds i8, ptr %this, i64 16
  %2 = load i32, ptr %m_num_elim_bin.i, align 8
  %add.i19 = add i32 %2, %call.i18
  store i32 %add.i19, ptr %m_num_elim_bin.i, align 8
  %cmp20.not = icmp eq i32 %call.i18, 0
  br i1 %cmp20.not, label %while.cond5.preheader, label %while.body

while.cond5.preheader:                            ; preds = %while.body, %entry
  %3 = load ptr, ptr %this, align 8
  tail call void @_ZN3sat3big4initERNS_6solverEb(ptr noundef nonnull align 8 dereferenceable(80) %m_big.i.i, ptr noundef nonnull align 8 dereferenceable(4408) %3, i1 noundef zeroext true)
  %4 = load ptr, ptr %this, align 8
  %call.i823 = tail call noundef i32 @_ZN3sat3big9reduce_trERNS_6solverE(ptr noundef nonnull align 8 dereferenceable(80) %m_big.i.i, ptr noundef nonnull align 8 dereferenceable(4408) %4)
  %5 = load i32, ptr %m_num_elim_bin.i, align 8
  %add.i1024 = add i32 %5, %call.i823
  store i32 %add.i1024, ptr %m_num_elim_bin.i, align 8
  %cmp725.not = icmp eq i32 %call.i823, 0
  br i1 %cmp725.not, label %while.end17, label %while.body12

while.body:                                       ; preds = %entry, %while.body
  %call.i22 = phi i32 [ %call.i, %while.body ], [ %call.i18, %entry ]
  %count.021 = phi i32 [ %inc, %while.body ], [ 0, %entry ]
  %inc = add nuw nsw i32 %count.021, 1
  %div5 = lshr i32 %call.i22, 1
  %.sroa.speculated15 = tail call i32 @llvm.umax.i32(i32 %div5, i32 100)
  %6 = load ptr, ptr %this, align 8
  tail call void @_ZN3sat3big4initERNS_6solverEb(ptr noundef nonnull align 8 dereferenceable(80) %m_big.i.i, ptr noundef nonnull align 8 dereferenceable(4408) %6, i1 noundef zeroext false)
  %7 = load ptr, ptr %this, align 8
  %call.i = tail call noundef i32 @_ZN3sat3big9reduce_trERNS_6solverE(ptr noundef nonnull align 8 dereferenceable(80) %m_big.i.i, ptr noundef nonnull align 8 dereferenceable(4408) %7)
  %8 = load i32, ptr %m_num_elim_bin.i, align 8
  %add.i = add i32 %8, %call.i
  store i32 %add.i, ptr %m_num_elim_bin.i, align 8
  %cmp = icmp ugt i32 %call.i, %.sroa.speculated15
  %cmp2 = icmp ult i32 %count.021, 9
  %or.cond = select i1 %cmp, i1 %cmp2, i1 false
  br i1 %or.cond, label %while.body, label %while.cond5.preheader, !llvm.loop !17

while.body12:                                     ; preds = %while.cond5.preheader, %while.body12
  %call.i827 = phi i32 [ %call.i8, %while.body12 ], [ %call.i823, %while.cond5.preheader ]
  %count.126 = phi i32 [ %inc9, %while.body12 ], [ 0, %while.cond5.preheader ]
  %inc9 = add nuw nsw i32 %count.126, 1
  %div154 = lshr i32 %call.i827, 1
  %.sroa.speculated = tail call i32 @llvm.umax.i32(i32 %div154, i32 100)
  %9 = load ptr, ptr %this, align 8
  tail call void @_ZN3sat3big4initERNS_6solverEb(ptr noundef nonnull align 8 dereferenceable(80) %m_big.i.i, ptr noundef nonnull align 8 dereferenceable(4408) %9, i1 noundef zeroext true)
  %10 = load ptr, ptr %this, align 8
  %call.i8 = tail call noundef i32 @_ZN3sat3big9reduce_trERNS_6solverE(ptr noundef nonnull align 8 dereferenceable(80) %m_big.i.i, ptr noundef nonnull align 8 dereferenceable(4408) %10)
  %11 = load i32, ptr %m_num_elim_bin.i, align 8
  %add.i10 = add i32 %11, %call.i8
  store i32 %add.i10, ptr %m_num_elim_bin.i, align 8
  %cmp7 = icmp ugt i32 %call.i8, %.sroa.speculated
  %cmp10 = icmp ult i32 %count.126, 9
  %or.cond6 = select i1 %cmp7, i1 %cmp10, i1 false
  br i1 %or.cond6, label %while.body12, label %while.end17, !llvm.loop !18

while.end17:                                      ; preds = %while.body12, %while.cond5.preheader
  ret void
}